target datalayout = "e-m:e-p270:32:32-p271:32:32-p272:64:64-i64:64-i128:128-f80:128-n8:16:32:64-S128"
target triple = "x86_64-pc-linux-gnu"

@hf_pnrp_message_ipv6 = internal global i32 0, align 4
@hf_pnrp_message_port_number = internal global i32 0, align 4

; Function Attrs: null_pointer_is_valid sspstrong uwtable
define internal void @dissect_ipv6_address(ptr noundef %0, i32 noundef %1, i32 noundef %2, ptr noundef %3) #0 {
  %5 = alloca ptr, align 8
  %6 = alloca i32, align 4
  %7 = alloca i32, align 4
  %8 = alloca ptr, align 8
  store ptr %0, ptr %5, align 8
  store i32 %1, ptr %6, align 4
  store i32 %2, ptr %7, align 4
  store ptr %3, ptr %8, align 8
  br label %9

9:                                                ; preds = %20, %4
  %10 = load ptr, ptr %5, align 8
  %11 = load i32, ptr %6, align 4
  %12 = add i32 %11, 16
  %13 = call i32 @tvb_reported_length_remaining(ptr noundef %10, i32 noundef %12)
  %14 = icmp sle i32 0, %13
  br i1 %14, label %15, label %18

15:                                               ; preds = %9
  %16 = load i32, ptr %7, align 4
  %17 = icmp sle i32 16, %16
  br label %18

18:                                               ; preds = %15, %9
  %19 = phi i1 [ false, %9 ], [ %17, %15 ]
  br i1 %19, label %20, label %30

20:                                               ; preds = %18
  %21 = load ptr, ptr %8, align 8
  %22 = load i32, ptr @hf_pnrp_message_ipv6, align 4
  %23 = load ptr, ptr %5, align 8
  %24 = load i32, ptr %6, align 4
  %25 = call ptr @proto_tree_add_item(ptr noundef %21, i32 noundef %22, ptr noundef %23, i32 noundef %24, i32 noundef 16, i32 noundef 0)
  %26 = load i32, ptr %6, align 4
  %27 = add i32 %26, 16
  store i32 %27, ptr %6, align 4
  %28 = load i32, ptr %7, align 4
  %29 = sub i32 %28, 16
  store i32 %29, ptr %7, align 4
  br label %9, !llvm.loop !13

30:                                               ; preds = %18
  ret void
}

; Function Attrs: null_pointer_is_valid sspstrong uwtable
define internal void @dissect_ipv6_endpoint_structure(ptr noundef %0, i32 noundef %1, i32 noundef %2, ptr noundef %3) #0 {
  %5 = alloca ptr, align 8
  %6 = alloca i32, align 4
  %7 = alloca i32, align 4
  %8 = alloca ptr, align 8
  store ptr %0, ptr %5, align 8
  store i32 %1, ptr %6, align 4
  store i32 %2, ptr %7, align 4
  store ptr %3, ptr %8, align 8
  br label %9

9:                                                ; preds = %20, %4
  %10 = load ptr, ptr %5, align 8
  %11 = load i32, ptr %6, align 4
  %12 = add i32 %11, 18
  %13 = call i32 @tvb_reported_length_remaining(ptr noundef %10, i32 noundef %12)
  %14 = icmp sle i32 0, %13
  br i1 %14, label %15, label %18

15:                                               ; preds = %9
  %16 = load i32, ptr %7, align 4
  %17 = icmp sle i32 18, %16
  br label %18

18:                                               ; preds = %15, %9
  %19 = phi i1 [ false, %9 ], [ %17, %15 ]
  br i1 %19, label %20, label %34

20:                                               ; preds = %18
  %21 = load ptr, ptr %8, align 8
  %22 = load i32, ptr @hf_pnrp_message_port_number, align 4
  %23 = load ptr, ptr %5, align 8
  %24 = load i32, ptr %6, align 4
  %25 = call ptr @proto_tree_add_item(ptr noundef %21, i32 noundef %22, ptr noundef %23, i32 noundef %24, i32 noundef 2, i32 noundef 0)
  %26 = load ptr, ptr %5, align 8
  %27 = load i32, ptr %6, align 4
  %28 = add i32 %27, 2
  %29 = load ptr, ptr %8, align 8
  call void @dissect_ipv6_address(ptr noundef %26, i32 noundef %28, i32 noundef 16, ptr noundef %29)
  %30 = load i32, ptr %6, align 4
  %31 = add i32 %30, 18
  store i32 %31, ptr %6, align 4
  %32 = load i32, ptr %7, align 4
  %33 = sub i32 %32, 18
  store i32 %33, ptr %7, align 4
  br label %9, !llvm.loop !12

34:                                               ; preds = %18
  ret void
}