; Function Attrs: null_pointer_is_valid sspstrong uwtable
define internal fastcc void @dissect_ipv6_endpoint_structure(ptr noundef %0, i32 noundef %1, i32 noundef range(i32 -8, -131070) %2, ptr noundef %3) unnamed_addr #0 {
  %5 = add i32 %1, 18
  %6 = tail call i32 @tvb_reported_length_remaining(ptr noundef %0, i32 noundef %5)
  %7 = icmp sgt i32 %6, -1
  %8 = icmp sgt i32 %2, 17
  %9 = and i1 %7, %8
  br i1 %9, label %.lr.ph, label %._crit_edge

.lr.ph:                                           ; preds = %4, %dissect_ipv6_address.exit
  %10 = phi i32 [ %22, %dissect_ipv6_address.exit ], [ %5, %4 ]
  %.012 = phi i32 [ %10, %dissect_ipv6_address.exit ], [ %1, %4 ]
  %.01011 = phi i32 [ %21, %dissect_ipv6_address.exit ], [ %2, %4 ]
  %11 = load i32, ptr @hf_pnrp_message_port_number, align 4
  %12 = tail call ptr @proto_tree_add_item(ptr noundef %3, i32 noundef %11, ptr noundef %0, i32 noundef %.012, i32 noundef 2, i32 noundef 0)
  %13 = add i32 %.012, 18
  %14 = tail call i32 @tvb_reported_length_remaining(ptr noundef %0, i32 noundef %13)
  %15 = icmp sgt i32 %14, -1
  br i1 %15, label %.lr.ph.i.preheader, label %dissect_ipv6_address.exit

.lr.ph.i.preheader:                               ; preds = %.lr.ph
  %16 = add i32 %.012, 2
  %17 = load i32, ptr @hf_pnrp_message_ipv6, align 4
  %18 = tail call ptr @proto_tree_add_item(ptr noundef %3, i32 noundef %17, ptr noundef %0, i32 noundef %16, i32 noundef 16, i32 noundef 0)
  %19 = add i32 %.012, 34
  %20 = tail call i32 @tvb_reported_length_remaining(ptr noundef %0, i32 noundef %19)
  br label %dissect_ipv6_address.exit

dissect_ipv6_address.exit:                        ; preds = %.lr.ph.i.preheader, %.lr.ph
  %21 = add nsw i32 %.01011, -18
  %22 = add i32 %10, 18
  %23 = tail call i32 @tvb_reported_length_remaining(ptr noundef %0, i32 noundef %22)
  %24 = icmp sgt i32 %23, -1
  %25 = icmp sgt i32 %.01011, 35
  %26 = select i1 %24, i1 %25, i1 false
  br i1 %26, label %.lr.ph, label %._crit_edge, !llvm.loop !14

._crit_edge:                                      ; preds = %dissect_ipv6_address.exit, %4
  ret void
}